(lp1
I1231
aI1230
aI1229
aI1228
aI1227
aI1226
aI1225
aI1224
aI1223
aI1222
aI1221
aI1220
aI1219
aI1218
aI1217
aI1215
aI1214
aI1213
aI1212
aI1211
aI1210
aI1209
aI1208
aI1207
aI1206
aI1205
aI1204
aI1203
aI1202
aI1201
aI1200
aI1199
aI1198
aI1197
aI1196
aI1195
aI1194
aI1193
aI1192
aI1191
aI1190
aI1189
aI1188
aI1187
aI1186
aI1184
aI1183
aI1182
aI1181
aI1178
aI1177
aI1176
aI1175
aI1174
aI1173
aI1172
aI1171
aI1170
aI1169
aI1168
aI1167
aI1166
aI1164
aI1163
aI1162
aI1161
aI1160
aI1159
aI1158
aI1157
aI1156
aI1155
aI1154
aI1153
aI1152
aI1151
aI1150
aI1149
aI1148
aI1147
aI1145
aI1144
aI1143
aI1142
aI1141
aI1140
aI1139
aI1138
aI1137
aI1136
aI1135
aI1134
aI1133
aI1131
aI1130
aI1129
aI1128
aI1127
aI1126
aI1125
aI1124
aI1123
aI1122
aI1121
aI1120
aI1118
aI1117
aI1116
aI1115
aI1114
aI1112
aI1111
aI1110
aI1109
aI1108
aI1107
aI1106
aI1105
aI1104
aI1103
aI1102
aI1101
aI1099
aI1097
aI1096
aI1095
aI1094
aI1093
aI1089
aI1088
aI1087
aI1086
aI1085
aI1084
aI1083
aI1082
aI1081
aI1080
aI1079
aI1078
aI1076
aI1075
aI1074
aI1073
aI1072
aI1071
aI1070
aI1068
aI1067
aI1065
aI1064
aI1063
aI1062
aI1061
aI1060
aI1059
aI1058
aI1057
aI1056
aI1055
aI1054
aI1053
aI1052
aI1051
aI1050
aI1049
aI1047
aI1046
aI1044
aI1042
aI1041
aI1040
aI1039
aI1038
aI1037
aI1035
aI1028
aI1026
aI1025
aI1024
aI1023
aI1022
aI1021
aI1020
aI1019
aI1018
aI1017
aI1015
aI1014
aI1011
aI1009
aI1008
aI1007
aI1005
aI1004
aI1003
aI1001
aI1000
aI999
aI998
aI997
aI996
aI995
aI994
aI993
aI992
aI991
aI990
aI988
aI987
aI986
aI985
aI983
aI982
aI980
aI979
aI978
aI977
aI976
aI975
aI974
aI972
aI971
aI969
aI968
aI967
aI966
aI964
aI962
aI960
aI958
aI957
aI956
aI955
aI954
aI950
aI949
aI948
aI947
aI946
aI944
aI942
aI939
aI938
aI935
aI934
aI933
aI932
aI930
aI929
aI928
aI925
aI923
aI922
aI921
aI919
aI918
aI914
aI913
aI912
aI909
aI908
aI907
aI905
aI904
aI903
aI899
aI898
aI892
aI891
aI889
aI886
aI884
aI880
aI879
aI878
aI873
aI872
aI867
aI866
aI865
aI864
aI860
aI859
aI858
aI857
aI856
aI853
aI852
aI849
aI847
aI843
aI841
aI840
aI838
aI837
aI831
aI830
aI828
aI825
aI822
aI820
aI819
aI818
aI817
aI816
aI815
aI814
aI811
aI810
aI808
aI807
aI806
aI804
aI803
aI802
aI801
aI800
aI799
aI798
aI796
aI792
aI788
aI785
aI782
aI778
aI776
aI775
aI771
aI770
aI767
aI765
aI762
aI759
aI756
aI754
aI753
aI745
aI743
aI740
aI739
aI736
aI734
aI729
aI726
aI715
aI714
aI708
aI707
aI703
aI700
aI664
aI662
aI656
aI653
aI652
aI651
aI650
aI648
aI647
aI646
aI637
aI632
aI622
aI610
aI601
aI599
aI593
aI587
aI574
aI562
aI554
aI547
aI545
aI539
aI534
aI531
aI531
aI528
aI498
aI496
aI496
aI491
aI429
aI417
aI409
aI402
aI399
aI399
aI395
aI394
aI394
aI380
aI380
aI374
aI363
aI360
aI360
aI360
aI360
aI356
aI356
aI327
aI322
aI319
aI317
aI313
aI309
aI309
aI305
aI303
aI303
aI292
aI292
aI273
aI263
aI172
aI134
aI134
aI127
aI89
aI85
aI85
aI64
aI64
aI64
aI64
aI64
aI64
aI55
aI55
aI55
aI55
aI55
aI55
aI42
aI42
aI42
aI42
aI42
aI42
aI42
aI36
aI36
aI36
aI36
aI36
aI36
aI36
aI36
aI31
aI31
aI27
aI25
aI25
aI25
aI25
aI25
aI19
aI19
aI19
aI19
aI19
aI17
aI16
aI16
aI16
aI16
aI16
aI16
aI16
aI16
aI16
aI16
aI16
aI16
aI16
aI16
aI16
aI16
aI16
aI16
aI16
aI15
aI15
aI15
aI15
aI12
aI12
aI12
aI10
aI10
aI10
aI10
aI10
aI10
aI10
aI10
aI10
aI10
aI10
aI10
aI10
aI10
aI10
aI10
aI10
aI10
aI10
aI10
aI10
aI10
aI10
aI10
aI10
aI10
aI8
aI8
aI8
aI8
aI8
aI8
aI8
aI8
aI8
aI8
aI8
aI8
aI8
aI8
aI8
aI8
aI8
aI8
aI8
aI8
aI8
aI8
aI8
aI8
aI8
aI8
aI8
aI8
aI8
aI7
aI7
aI7
aI7
aI7
aI7
aI7
aI7
aI7
aI7
aI7
aI7
aI7
aI5
aI5
aI5
aI5
aI5
aI5
aI5
aI5
aI5
aI5
aI5
aI5
aI5
aI5
aI5
aI5
aI5
aI4
aI4
aI4
aI4
aI4
aI4
aI4
aI4
aI4
aI4
aI4
aI4
aI4
aI4
aI4
aI4
aI4
aI4
aI4
aI4
aI4
aI4
aI4
aI4
aI4
aI4
aI4
aI4
aI4
aI4
aI4
aI4
aI4
aI4
aI4
aI3
aI2
aI2
aI2
aI2
aI2
aI2
aI2
aI2
aI2
aI2
aI2
aI2
aI2
aI2
aI2
aI2
aI2
aI2
aI2
aI2
aI2
aI2
aI2
aI2
aI2
aI2
aI2
aI2
aI2
aI2
aI2
aI2
aI2
aI2
aI2
aI2
aI2
aI2
aI2
aI2
aI2
aI2
aI2
aI2
aI2
aI2
aI2
aI2
aI2
aI2
aI2
aI2
aI2
aI2
aI2
aI2
aI2
aI2
aI2
aI2
aI2
aI2
aI2
aI2
aI2
aI2
aI2
aI2
aI2
aI2
aI2
aI2
aI2
aI2
aI2
aI2
aI2
aI2
aI2
aI2
aI2
aI2
aI2
aI2
aI2
aI2
aI2
aI2
aI2
aI2
aI2
aI2
aI2
aI2
aI2
aI2
aI2
aI2
aI2
aI2
aI2
aI2
aI2
aI2
aI2
aI2
aI2
aI2
aI2
aI2
aI2
aI2
aI2
aI2
aI2
aI2
aI2
aI2
aI2
aI2
aI2
aI2
aI2
aI2
aI2
aI2
aI1
aI1
aI1
aI1
aI1
aI1
aI1
aI1
aI1
aI1
aI1
aI1
aI1
aI1
aI1
aI1
aI1
aI1
aI1
aI1
aI1
aI1
aI1
aI1
aI1
aI1
aI1
aI1
aI1
aI1
aI1
aI1
aI1
aI1
aI1
aI1
aI1
aI1
aI1
aI1
aI1
aI1
aI1
aI1
aI1
aI1
aI1
aI1
aI1
aI1
aI1
aI1
aI1
aI1
aI1
aI1
aI1
aI1
aI1
aI1
aI1
aI1
aI1
aI1
aI1
aI1
aI1
aI1
aI1
aI1
aI1
aI1
aI1
aI1
aI1
aI1
aI1
aI1
aI1
aI1
aI1
aI1
aI1
aI1
aI1
aI1
aI1
aI1
aI1
aI1
aI1
aI1
aI1
aI1
aI1
aI1
aI1
aI1
aI1
aI1
aI1
aI1
aI1
aI1
aI1
aI1
aI1
aI1
aI1
aI1
aI1
aI1
aI1
aI1
aI1
aI1
aI1
aI1
aI1
aI1
aI1
aI1
aI1
aI1
aI1
aI1
aI1
aI1
aI1
aI1
aI1
aI1
aI1
aI1
aI1
aI1
aI1
aI1
aI1
aI1
aI1
aI1
aI1
aI1
aI1
aI1
aI1
aI1
aI1
aI1
aI1
aI1
aI1
aI1
aI1
aI1
aI1
aI1
aI1
aI1
aI1
aI1
aI1
aI1
aI1
aI1
aI1
aI1
aI1
aI1
aI1
aI1
aI1
aI1
aI1
aI1
aI1
aI1
aI1
aI1
aI1
aI1
aI1
aI1
aI1
aI1
aI1
aI1
aI1
aI1
aI1
aI1
aI1
aI1
aI1
aI1
aI1
aI1
aI1
aI1
aI1
aI1
aI1
aI1
aI1
aI1
aI1
aI1
aI1
aI1
aI1
aI1
aI1
aI1
aI1
aI1
aI1
aI1
aI1
aI1
aI1
aI1
aI1
aI1
aI1
aI1
aI1
aI1
aI1
aI1
aI1
aI1
aI1
aI1
aI1
aI1
aI1
aI1
aI1
aI1
aI1
aI1
aI1
aI1
aI1
aI1
aI1
aI1
aI1
aI1
aI1
aI1
aI1
aI1
aI1
aI1
aI1
aI1
aI1
aI1
aI1
aI1
aI1
aI1
aI1
aI1
aI1
aI1
aI1
aI1
aI1
aI1
aI1
aI1
aI1
aI1
aI1
aI1
aI1
aI1
aI1
aI1
aI1
aI1
aI1
aI1
aI1
aI1
aI1
aI1
aI1
aI1
aI1
aI1
aI1
aI1
aI1
aI1
aI1
aI1
aI1
aI1
aI1
aI1
aI1
aI1
aI1
aI1
aI1
aI1
aI1
aI1
aI1
aI1
aI1
aI1
aI1
aI1
aI1
aI1
aI1
aI1
aI1
aI1
aI1
aI1
aI1
aI1
aI1
aI1
aI1
aI1
aI1
aI1
aI1
aI1
aI1
aI1
aI1
aI1
aI1
aI1
aI1
aI1
aI1
aI1
aI1
aI1
aI1
aI1
aI1
aI1
aI1
aI1
aI1
aI1
aI1
aI1
aI1
aI1
aI1
aI1
aI1
aI1
aI1
aI1
aI1
aI1
aI1
aI1
aI1
aI1
aI1
aI1
aI1
aI1
aI1
aI1
aI1
aI1
aI1
aI1
aI1
aI1
aI1
aI1
aI1
aI1
aI1
aI1
aI1
aI1
aI1
aI1
aI1
aI1
aI1
aI1
aI1
aI1
aI1
aI1
aI1
aI1
aI1
aI1
aI1
aI1
aI1
aI1
aI1
aI1
aI1
aI1
aI1
aI1
aI1
aI1
aI1
aI1
aI1
aI1
aI1
aI1
aI1
aI1
aI1
aI1
aI1
aI1
aI1
aI1
aI1
aI1
aI1
aI1
aI1
aI1
aI1
aI1
aI1
aI1
aI1
aI1
aI1
aI1
aI1
aI1
aI1
aI1
aI1
aI1
aI1
aI1
aI1
aI1
aI1
aI1
aI1
aI1
aI1
aI1
aI1
aI1
aI1
aI1
aI1
aI1
aI1
aI1
aI1
aI1
aI1
aI1
aI1
aI1
aI1
aI1
aI1
aI1
aI1
aI1
aI1
aI1
aI1
aI1
aI1
aI1
aI1
aI1
aI1
aI1
aI1
aI1
aI1
aI1
aI1
aI1
aI1
aI1
aI1
aI1
aI0
a.