(lp1
I1232
aI1231
aI1230
aI1229
aI1228
aI1227
aI1226
aI1225
aI1224
aI1223
aI1222
aI1221
aI1220
aI1219
aI1218
aI1217
aI1216
aI1215
aI1214
aI1213
aI1212
aI1211
aI1210
aI1209
aI1208
aI1207
aI1206
aI1205
aI1204
aI1203
aI1202
aI1201
aI1200
aI1199
aI1198
aI1197
aI1196
aI1195
aI1194
aI1193
aI1192
aI1191
aI1190
aI1189
aI1188
aI1187
aI1186
aI1185
aI1184
aI1183
aI1182
aI1181
aI1180
aI1179
aI1178
aI1177
aI1176
aI1175
aI1174
aI1173
aI1172
aI1171
aI1170
aI1169
aI1168
aI1166
aI1165
aI1164
aI1163
aI1162
aI1161
aI1160
aI1159
aI1158
aI1157
aI1156
aI1155
aI1154
aI1153
aI1152
aI1151
aI1150
aI1149
aI1148
aI1147
aI1146
aI1145
aI1144
aI1143
aI1142
aI1141
aI1140
aI1138
aI1137
aI1136
aI1135
aI1134
aI1133
aI1132
aI1131
aI1130
aI1128
aI1127
aI1126
aI1125
aI1124
aI1123
aI1122
aI1121
aI1120
aI1118
aI1117
aI1116
aI1115
aI1114
aI1113
aI1112
aI1111
aI1110
aI1109
aI1108
aI1107
aI1106
aI1105
aI1104
aI1103
aI1102
aI1101
aI1100
aI1099
aI1098
aI1097
aI1096
aI1095
aI1094
aI1093
aI1092
aI1090
aI1088
aI1087
aI1086
aI1085
aI1084
aI1083
aI1082
aI1081
aI1080
aI1079
aI1078
aI1077
aI1076
aI1075
aI1074
aI1073
aI1072
aI1071
aI1070
aI1069
aI1068
aI1067
aI1066
aI1065
aI1064
aI1063
aI1062
aI1061
aI1060
aI1059
aI1058
aI1057
aI1056
aI1055
aI1054
aI1054
aI1053
aI1052
aI1051
aI1050
aI1049
aI1048
aI1047
aI1046
aI1045
aI1044
aI1043
aI1042
aI1041
aI1040
aI1039
aI1037
aI1036
aI1034
aI1033
aI1032
aI1031
aI1030
aI1029
aI1028
aI1027
aI1026
aI1025
aI1024
aI1023
aI1022
aI1021
aI1020
aI1019
aI1018
aI1017
aI1016
aI1015
aI1014
aI1013
aI1012
aI1010
aI1008
aI1006
aI1005
aI1004
aI1003
aI1002
aI1001
aI1000
aI998
aI997
aI996
aI995
aI994
aI993
aI992
aI990
aI989
aI988
aI987
aI986
aI985
aI984
aI983
aI982
aI981
aI980
aI979
aI978
aI976
aI975
aI974
aI973
aI972
aI971
aI970
aI969
aI967
aI966
aI965
aI964
aI963
aI962
aI961
aI960
aI959
aI958
aI957
aI956
aI955
aI954
aI953
aI952
aI951
aI950
aI949
aI948
aI947
aI946
aI945
aI944
aI943
aI942
aI941
aI940
aI939
aI938
aI937
aI936
aI935
aI934
aI933
aI932
aI931
aI930
aI929
aI928
aI927
aI925
aI924
aI923
aI922
aI921
aI920
aI919
aI918
aI916
aI915
aI914
aI913
aI912
aI911
aI910
aI909
aI908
aI907
aI905
aI904
aI903
aI902
aI901
aI900
aI899
aI899
aI898
aI897
aI896
aI895
aI894
aI893
aI892
aI891
aI891
aI889
aI888
aI887
aI886
aI885
aI884
aI883
aI882
aI880
aI879
aI878
aI877
aI876
aI875
aI874
aI872
aI871
aI870
aI867
aI866
aI865
aI864
aI863
aI862
aI861
aI860
aI859
aI858
aI857
aI856
aI855
aI854
aI853
aI852
aI851
aI850
aI849
aI848
aI847
aI846
aI844
aI843
aI842
aI841
aI840
aI839
aI838
aI837
aI836
aI835
aI834
aI833
aI832
aI831
aI829
aI828
aI827
aI826
aI825
aI824
aI823
aI822
aI821
aI820
aI819
aI818
aI817
aI816
aI815
aI814
aI813
aI812
aI811
aI810
aI809
aI808
aI807
aI806
aI805
aI804
aI803
aI801
aI799
aI798
aI797
aI796
aI795
aI794
aI793
aI792
aI791
aI790
aI790
aI789
aI788
aI787
aI786
aI785
aI784
aI782
aI781
aI780
aI779
aI778
aI777
aI776
aI775
aI774
aI773
aI772
aI771
aI770
aI769
aI768
aI766
aI765
aI764
aI763
aI762
aI761
aI760
aI759
aI756
aI755
aI754
aI753
aI752
aI751
aI750
aI748
aI747
aI746
aI745
aI745
aI744
aI743
aI742
aI741
aI740
aI738
aI737
aI736
aI734
aI732
aI731
aI730
aI729
aI729
aI728
aI726
aI725
aI725
aI724
aI723
aI722
aI720
aI719
aI718
aI717
aI716
aI715
aI714
aI713
aI712
aI711
aI708
aI707
aI706
aI705
aI704
aI703
aI700
aI699
aI696
aI695
aI693
aI692
aI691
aI691
aI690
aI689
aI688
aI687
aI686
aI685
aI684
aI683
aI681
aI680
aI679
aI678
aI677
aI677
aI676
aI673
aI672
aI672
aI671
aI670
aI669
aI668
aI666
aI665
aI664
aI663
aI662
aI662
aI661
aI660
aI659
aI658
aI657
aI656
aI655
aI655
aI654
aI653
aI652
aI651
aI650
aI647
aI645
aI643
aI640
aI639
aI638
aI637
aI636
aI635
aI632
aI632
aI631
aI630
aI629
aI628
aI627
aI626
aI624
aI623
aI620
aI619
aI618
aI618
aI617
aI616
aI615
aI614
aI613
aI612
aI611
aI610
aI610
aI609
aI607
aI606
aI605
aI605
aI603
aI603
aI602
aI601
aI598
aI597
aI597
aI596
aI595
aI594
aI592
aI592
aI591
aI591
aI590
aI589
aI588
aI587
aI586
aI584
aI584
aI583
aI582
aI581
aI581
aI579
aI578
aI578
aI576
aI575
aI573
aI570
aI570
aI569
aI568
aI566
aI564
aI563
aI562
aI562
aI561
aI560
aI557
aI556
aI555
aI554
aI553
aI552
aI551
aI549
aI548
aI547
aI545
aI544
aI543
aI542
aI539
aI538
aI537
aI537
aI536
aI534
aI534
aI534
aI532
aI530
aI529
aI528
aI527
aI525
aI524
aI523
aI522
aI519
aI519
aI519
aI518
aI517
aI516
aI513
aI512
aI510
aI509
aI508
aI507
aI506
aI504
aI503
aI501
aI500
aI499
aI498
aI497
aI496
aI495
aI494
aI493
aI492
aI492
aI492
aI490
aI489
aI488
aI486
aI485
aI483
aI482
aI481
aI480
aI479
aI477
aI476
aI475
aI474
aI474
aI473
aI472
aI471
aI470
aI469
aI469
aI468
aI466
aI465
aI464
aI460
aI459
aI454
aI453
aI452
aI451
aI444
aI443
aI442
aI441
aI440
aI439
aI438
aI437
aI436
aI435
aI433
aI431
aI430
aI429
aI428
aI428
aI427
aI426
aI424
aI422
aI420
aI419
aI418
aI418
aI413
aI406
aI405
aI404
aI403
aI403
aI403
aI400
aI399
aI390
aI385
aI385
aI384
aI382
aI381
aI381
aI380
aI380
aI380
aI379
aI379
aI378
aI374
aI373
aI371
aI370
aI369
aI368
aI367
aI366
aI361
aI360
aI359
aI356
aI355
aI353
aI346
aI345
aI345
aI344
aI344
aI342
aI341
aI340
aI340
aI335
aI335
aI334
aI334
aI332
aI330
aI329
aI329
aI328
aI328
aI327
aI327
aI324
aI320
aI319
aI317
aI317
aI315
aI312
aI309
aI307
aI307
aI306
aI306
aI304
aI304
aI303
aI302
aI302
aI300
aI299
aI298
aI298
aI298
aI297
aI297
aI296
aI294
aI293
aI290
aI290
aI290
aI289
aI287
aI286
aI285
aI284
aI283
aI282
aI282
aI282
aI282
aI282
aI282
aI280
aI280
aI279
aI279
aI278
aI278
aI276
aI275
aI275
aI272
aI271
aI269
aI269
aI268
aI267
aI267
aI266
aI265
aI264
aI264
aI262
aI262
aI256
aI251
aI250
aI249
aI237
aI235
aI229
aI229
aI229
aI229
aI228
aI227
aI227
aI226
aI225
aI225
aI222
aI222
aI221
aI221
aI221
aI220
aI220
aI219
aI219
aI212
aI207
aI207
aI204
aI204
aI204
aI204
aI203
aI201
aI200
aI200
aI198
aI170
aI169
aI167
aI167
aI166
aI163
aI162
aI161
aI160
aI160
aI157
aI156
aI156
aI155
aI155
aI155
aI154
aI154
aI153
aI148
aI144
aI143
aI143
aI143
aI143
aI142
aI142
aI141
aI141
aI139
aI138
aI134
aI134
aI134
aI134
aI134
aI134
aI134
aI134
aI134
aI130
aI130
aI129
aI123
aI123
aI118
aI118
aI118
aI118
aI118
aI117
aI117
aI116
aI116
aI116
aI115
aI115
aI115
aI114
aI114
aI110
aI109
aI106
aI106
aI106
aI106
aI106
aI106
aI106
aI105
aI103
aI103
aI103
aI102
aI100
aI100
aI100
aI100
aI94
aI90
aI90
aI90
aI90
aI83
aI83
aI83
aI83
aI80
aI80
aI80
aI78
aI78
aI78
aI76
aI76
aI76
aI76
aI76
aI76
aI75
aI75
aI75
aI75
aI75
aI75
aI75
aI74
aI73
aI73
aI73
aI73
aI73
aI72
aI71
aI71
aI71
aI66
aI66
aI66
aI66
aI66
aI64
aI49
aI30
aI30
aI30
aI30
aI26
aI26
aI26
aI26
aI26
aI26
aI26
aI26
aI25
aI25
aI24
aI24
aI24
aI24
aI24
aI24
aI24
aI20
aI20
aI20
aI20
aI20
aI20
aI20
aI20
aI20
aI20
aI20
aI20
aI20
aI20
aI20
aI20
aI20
aI19
aI19
aI19
aI19
aI18
aI18
aI18
aI18
aI18
aI18
aI18
aI18
aI18
aI18
aI18
aI18
aI17
aI17
aI17
aI17
aI17
aI17
aI17
aI17
aI17
aI17
aI17
aI17
aI17
aI17
aI17
aI17
aI17
aI17
aI17
aI17
aI17
aI17
aI17
aI17
aI17
aI17
aI17
aI17
aI17
aI14
aI14
aI14
aI14
aI14
aI14
aI9
aI9
aI9
aI9
aI9
aI9
aI8
aI8
aI8
aI8
aI8
aI8
aI8
aI8
aI8
aI8
aI8
aI8
aI8
aI8
aI8
aI8
aI8
aI8
aI8
aI8
aI8
aI8
aI7
aI7
aI7
aI7
aI7
aI7
aI7
aI7
aI7
aI7
aI7
aI7
aI7
aI7
aI7
aI7
aI7
aI7
aI7
aI7
aI7
aI7
aI7
aI7
aI7
aI7
aI7
aI7
aI7
aI7
aI6
aI6
aI6
aI6
aI6
aI6
aI6
aI6
aI4
aI4
aI4
aI4
aI4
aI4
aI4
aI4
aI4
aI4
aI4
aI4
aI4
aI3
aI3
aI3
aI3
aI3
aI3
aI3
aI3
aI3
aI3
aI3
aI3
aI3
aI3
aI3
aI3
aI3
aI3
aI3
aI3
aI3
aI3
aI3
aI3
aI3
aI3
aI2
aI2
aI2
aI2
aI2
aI2
aI2
aI2
aI2
aI2
aI1
aI1
aI1
aI1
aI1
aI1
aI1
aI1
aI1
aI1
aI1
aI1
aI1
aI1
aI1
aI0
a.